target datalayout = "e-m:e-p270:32:32-p271:32:32-p272:64:64-i64:64-i128:128-f80:128-n8:16:32:64-S128"
target triple = "x86_64-pc-linux-gnu"

%class.CollectedHeap = type { ptr, ptr, i64, i64, %class.SoftRefPolicy, %class.MemRegion, i8, i64, i32, i32, i32, i32, ptr, ptr }
%class.SoftRefPolicy = type { i8, i8 }
%class.MemRegion = type { ptr, i64 }

; Function Attrs: mustprogress nounwind uwtable
define hidden void @_ZN13CollectedHeap30update_capacity_and_used_at_gcEv(ptr noundef nonnull align 8 dereferenceable(104) %0) #1 align 2 {
  %2 = alloca ptr, align 8
  store ptr %0, ptr %2, align 8
  %3 = load ptr, ptr %2, align 8
  %4 = load ptr, ptr %3, align 8
  %5 = getelementptr inbounds ptr, ptr %4, i64 11
  %6 = load ptr, ptr %5, align 8
  %7 = call noundef i64 %6(ptr noundef nonnull align 8 dereferenceable(104) %3)
  %8 = getelementptr inbounds %class.CollectedHeap, ptr %3, i32 0, i32 2
  store i64 %7, ptr %8, align 8
  %9 = load ptr, ptr %3, align 8
  %10 = getelementptr inbounds ptr, ptr %9, i64 12
  %11 = load ptr, ptr %10, align 8
  %12 = call noundef i64 %11(ptr noundef nonnull align 8 dereferenceable(104) %3)
  %13 = getelementptr inbounds %class.CollectedHeap, ptr %3, i32 0, i32 3
  store i64 %12, ptr %13, align 8
  ret void
}