; Function Attrs: mustprogress nounwind uwtable
define hidden void @_ZN13CollectedHeap30update_capacity_and_used_at_gcEv(ptr noundef nonnull align 8 dereferenceable(104) %0) local_unnamed_addr #0 align 2 {
  %2 = load ptr, ptr %0, align 8
  %3 = getelementptr inbounds i8, ptr %2, i64 88
  %4 = load ptr, ptr %3, align 8
  %5 = tail call noundef i64 %4(ptr noundef nonnull align 8 dereferenceable(104) %0) #18
  %6 = getelementptr inbounds i8, ptr %0, i64 16
  store i64 %5, ptr %6, align 8
  %7 = load ptr, ptr %0, align 8
  %8 = getelementptr inbounds i8, ptr %7, i64 96
  %9 = load ptr, ptr %8, align 8
  %10 = tail call noundef i64 %9(ptr noundef nonnull align 8 dereferenceable(104) %0) #18
  %11 = getelementptr inbounds i8, ptr %0, i64 24
  store i64 %10, ptr %11, align 8
  ret void
}